target datalayout = "e-m:e-p270:32:32-p271:32:32-p272:64:64-i64:64-i128:128-f80:128-n8:16:32:64-S128"
target triple = "x86_64-pc-linux-gnu"

%class.LogTagSet = type { ptr, i64, [5 x i32], [4 x i8], %class.LogOutputList, %class.LogDecorators, ptr }
%class.LogOutputList = type <{ [6 x ptr], i32, [4 x i8] }>
%class.LogDecorators = type { i32 }

@InitialHeapSize = external global i64, align 8
@MaxHeapSize = external global i64, align 8
@.str = private unnamed_addr constant [62 x i8] c"Consider setting -Xms equal to -Xmx to avoid resizing hiccups\00", align 1
@AlwaysPreTouch = external global i8, align 1
@.str.4 = private unnamed_addr constant [69 x i8] c"Consider enabling -XX:+AlwaysPreTouch to avoid memory commit hiccups\00", align 1
@UseTLAB = external global i8, align 1
@.str.5 = private unnamed_addr constant [21 x i8] c"TLAB Size Max: %lu%s\00", align 1
@EpsilonElasticTLAB = external global i8, align 1
@.str.6 = private unnamed_addr constant [28 x i8] c"TLAB Size Elasticity: %.2fx\00", align 1
@EpsilonTLABElasticity = external global double, align 8
@EpsilonElasticTLABDecay = external global i8, align 1
@.str.7 = private unnamed_addr constant [28 x i8] c"TLAB Size Decay Time: %lums\00", align 1
@EpsilonTLABDecayTime = external global i64, align 8
@.str.8 = private unnamed_addr constant [15 x i8] c"TLAB: Disabled\00", align 1
@_ZN16LogTagSetMappingILN6LogTag4typeE49ELS1_58ELS1_0ELS1_0ELS1_0ELS1_0EE7_tagsetE = linkonce_odr hidden global %class.LogTagSet zeroinitializer, comdat, align 8
@.str.10 = private unnamed_addr constant [2 x i8] c"G\00", align 1
@.str.11 = private unnamed_addr constant [2 x i8] c"M\00", align 1
@.str.12 = private unnamed_addr constant [2 x i8] c"K\00", align 1
@.str.13 = private unnamed_addr constant [2 x i8] c"B\00", align 1

; Function Attrs: mustprogress nounwind uwtable
define linkonce_odr hidden noundef zeroext i1 @_ZNK13LogOutputList8is_levelEN8LogLevel4typeE(ptr noundef nonnull align 8 dereferenceable(52) %0, i32 noundef %1) #1 comdat align 2 {
  %3 = alloca ptr, align 8
  %4 = alloca i32, align 4
  store ptr %0, ptr %3, align 8
  store i32 %1, ptr %4, align 4
  %5 = load ptr, ptr %3, align 8
  %6 = getelementptr inbounds %class.LogOutputList, ptr %5, i32 0, i32 0
  %7 = load i32, ptr %4, align 4
  %8 = zext i32 %7 to i64
  %9 = getelementptr inbounds [6 x ptr], ptr %6, i64 0, i64 %8
  %10 = load volatile ptr, ptr %9, align 8
  %11 = icmp ne ptr %10, null
  ret i1 %11
}

; Function Attrs: mustprogress nounwind uwtable
define linkonce_odr hidden noundef zeroext i1 @_ZNK9LogTagSet8is_levelEN8LogLevel4typeE(ptr noundef nonnull align 8 dereferenceable(112) %0, i32 noundef %1) #1 comdat align 2 {
  %3 = alloca ptr, align 8
  %4 = alloca i32, align 4
  store ptr %0, ptr %3, align 8
  store i32 %1, ptr %4, align 4
  %5 = load ptr, ptr %3, align 8
  %6 = getelementptr inbounds %class.LogTagSet, ptr %5, i32 0, i32 4
  %7 = load i32, ptr %4, align 4
  %8 = call noundef zeroext i1 @_ZNK13LogOutputList8is_levelEN8LogLevel4typeE(ptr noundef nonnull align 8 dereferenceable(52) %6, i32 noundef %7)
  ret i1 %8
}

; Function Attrs: mustprogress nounwind uwtable
define linkonce_odr hidden noundef nonnull align 8 dereferenceable(112) ptr @_ZN16LogTagSetMappingILN6LogTag4typeE49ELS1_58ELS1_0ELS1_0ELS1_0ELS1_0EE6tagsetEv() #1 comdat align 2 {
  ret ptr @_ZN16LogTagSetMappingILN6LogTag4typeE49ELS1_58ELS1_0ELS1_0ELS1_0ELS1_0EE7_tagsetE
}

; Function Attrs: mustprogress nounwind uwtable
define linkonce_odr hidden noundef ptr @_Z24exact_unit_for_byte_sizem(i64 noundef %0) #1 comdat {
  %2 = alloca ptr, align 8
  %3 = alloca i64, align 8
  store i64 %0, ptr %3, align 8
  %4 = load i64, ptr %3, align 8
  %5 = icmp uge i64 %4, 1073741824
  br i1 %5, label %6, label %11

6:                                                ; preds = %1
  %7 = load i64, ptr %3, align 8
  %8 = urem i64 %7, 1073741824
  %9 = icmp eq i64 %8, 0
  br i1 %9, label %10, label %11

10:                                               ; preds = %6
  store ptr @.str.10, ptr %2, align 8
  br label %28

11:                                               ; preds = %6, %1
  %12 = load i64, ptr %3, align 8
  %13 = icmp uge i64 %12, 1048576
  br i1 %13, label %14, label %19

14:                                               ; preds = %11
  %15 = load i64, ptr %3, align 8
  %16 = urem i64 %15, 1048576
  %17 = icmp eq i64 %16, 0
  br i1 %17, label %18, label %19

18:                                               ; preds = %14
  store ptr @.str.11, ptr %2, align 8
  br label %28

19:                                               ; preds = %14, %11
  %20 = load i64, ptr %3, align 8
  %21 = icmp uge i64 %20, 1024
  br i1 %21, label %22, label %27

22:                                               ; preds = %19
  %23 = load i64, ptr %3, align 8
  %24 = urem i64 %23, 1024
  %25 = icmp eq i64 %24, 0
  br i1 %25, label %26, label %27

26:                                               ; preds = %22
  store ptr @.str.12, ptr %2, align 8
  br label %28

27:                                               ; preds = %22, %19
  store ptr @.str.13, ptr %2, align 8
  br label %28

28:                                               ; preds = %27, %26, %18, %10
  %29 = load ptr, ptr %2, align 8
  ret ptr %29
}

; Function Attrs: mustprogress nounwind uwtable
define linkonce_odr hidden noundef i64 @_Z23byte_size_in_exact_unitm(i64 noundef %0) #1 comdat {
  %2 = alloca i64, align 8
  %3 = alloca i64, align 8
  store i64 %0, ptr %3, align 8
  %4 = load i64, ptr %3, align 8
  %5 = icmp uge i64 %4, 1073741824
  br i1 %5, label %6, label %13

6:                                                ; preds = %1
  %7 = load i64, ptr %3, align 8
  %8 = urem i64 %7, 1073741824
  %9 = icmp eq i64 %8, 0
  br i1 %9, label %10, label %13

10:                                               ; preds = %6
  %11 = load i64, ptr %3, align 8
  %12 = udiv i64 %11, 1073741824
  store i64 %12, ptr %2, align 8
  br label %35

13:                                               ; preds = %6, %1
  %14 = load i64, ptr %3, align 8
  %15 = icmp uge i64 %14, 1048576
  br i1 %15, label %16, label %23

16:                                               ; preds = %13
  %17 = load i64, ptr %3, align 8
  %18 = urem i64 %17, 1048576
  %19 = icmp eq i64 %18, 0
  br i1 %19, label %20, label %23

20:                                               ; preds = %16
  %21 = load i64, ptr %3, align 8
  %22 = udiv i64 %21, 1048576
  store i64 %22, ptr %2, align 8
  br label %35

23:                                               ; preds = %16, %13
  %24 = load i64, ptr %3, align 8
  %25 = icmp uge i64 %24, 1024
  br i1 %25, label %26, label %33

26:                                               ; preds = %23
  %27 = load i64, ptr %3, align 8
  %28 = urem i64 %27, 1024
  %29 = icmp eq i64 %28, 0
  br i1 %29, label %30, label %33

30:                                               ; preds = %26
  %31 = load i64, ptr %3, align 8
  %32 = udiv i64 %31, 1024
  store i64 %32, ptr %2, align 8
  br label %35

33:                                               ; preds = %26, %23
  %34 = load i64, ptr %3, align 8
  store i64 %34, ptr %2, align 8
  br label %35

35:                                               ; preds = %33, %30, %20, %10
  %36 = load i64, ptr %2, align 8
  ret i64 %36
}

; Function Attrs: mustprogress nounwind uwtable
define linkonce_odr hidden noundef zeroext i1 @_ZN7LogImplILN6LogTag4typeE49ELS1_58ELS1_0ELS1_0ELS1_0ELS1_0EE8is_levelEN8LogLevel4typeE(i32 noundef %0) #1 comdat align 2 {
  %2 = alloca i32, align 4
  store i32 %0, ptr %2, align 4
  %3 = call noundef nonnull align 8 dereferenceable(112) ptr @_ZN16LogTagSetMappingILN6LogTag4typeE49ELS1_58ELS1_0ELS1_0ELS1_0ELS1_0EE6tagsetEv()
  %4 = load i32, ptr %2, align 4
  %5 = call noundef zeroext i1 @_ZNK9LogTagSet8is_levelEN8LogLevel4typeE(ptr noundef nonnull align 8 dereferenceable(112) %3, i32 noundef %4)
  ret i1 %5
}

; Function Attrs: mustprogress nounwind uwtable
define hidden void @_ZN17EpsilonInitLogger17print_gc_specificEv(ptr noundef nonnull align 8 dereferenceable(8) %0) unnamed_addr #1 align 2 {
  %2 = alloca ptr, align 8
  %3 = alloca i64, align 8
  store ptr %0, ptr %2, align 8
  %4 = load i64, ptr @InitialHeapSize, align 8
  %5 = load i64, ptr @MaxHeapSize, align 8
  %6 = icmp ne i64 %4, %5
  br i1 %6, label %7, label %12

7:                                                ; preds = %1
  %8 = call noundef zeroext i1 @_ZN7LogImplILN6LogTag4typeE49ELS1_58ELS1_0ELS1_0ELS1_0ELS1_0EE8is_levelEN8LogLevel4typeE(i32 noundef 4)
  br i1 %8, label %10, label %9

9:                                                ; preds = %7
  br label %11

10:                                               ; preds = %7
  call void (ptr, ...) @_ZN7LogImplILN6LogTag4typeE49ELS1_58ELS1_0ELS1_0ELS1_0ELS1_0EE5writeILN8LogLevel4typeE4EEEvPKcz(ptr noundef @.str)
  br label %11

11:                                               ; preds = %10, %9
  br label %12

12:                                               ; preds = %11, %1
  %13 = call noundef zeroext i1 @_ZN7JVMFlag10is_defaultE12JVMFlagsEnum(i32 noundef 1106)
  br i1 %13, label %14, label %22

14:                                               ; preds = %12
  %15 = load i8, ptr @AlwaysPreTouch, align 1
  %16 = trunc i8 %15 to i1
  br i1 %16, label %22, label %17

17:                                               ; preds = %14
  %18 = call noundef zeroext i1 @_ZN7LogImplILN6LogTag4typeE49ELS1_58ELS1_0ELS1_0ELS1_0ELS1_0EE8is_levelEN8LogLevel4typeE(i32 noundef 4)
  br i1 %18, label %20, label %19

19:                                               ; preds = %17
  br label %21

20:                                               ; preds = %17
  call void (ptr, ...) @_ZN7LogImplILN6LogTag4typeE49ELS1_58ELS1_0ELS1_0ELS1_0ELS1_0EE5writeILN8LogLevel4typeE4EEEvPKcz(ptr noundef @.str.4)
  br label %21

21:                                               ; preds = %20, %19
  br label %22

22:                                               ; preds = %21, %14, %12
  %23 = load i8, ptr @UseTLAB, align 1
  %24 = trunc i8 %23 to i1
  br i1 %24, label %25, label %58

25:                                               ; preds = %22
  %26 = call noundef ptr @_ZN11EpsilonHeap4heapEv()
  %27 = load ptr, ptr %26, align 8
  %28 = getelementptr inbounds ptr, ptr %27, i64 22
  %29 = load ptr, ptr %28, align 8
  %30 = call noundef i64 %29(ptr noundef nonnull align 8 dereferenceable(480) %26)
  %31 = mul i64 %30, 8
  store i64 %31, ptr %3, align 8
  %32 = call noundef zeroext i1 @_ZN7LogImplILN6LogTag4typeE49ELS1_58ELS1_0ELS1_0ELS1_0ELS1_0EE8is_levelEN8LogLevel4typeE(i32 noundef 3)
  br i1 %32, label %34, label %33

33:                                               ; preds = %25
  br label %39

34:                                               ; preds = %25
  %35 = load i64, ptr %3, align 8
  %36 = call noundef i64 @_Z23byte_size_in_exact_unitm(i64 noundef %35)
  %37 = load i64, ptr %3, align 8
  %38 = call noundef ptr @_Z24exact_unit_for_byte_sizem(i64 noundef %37)
  call void (ptr, ...) @_ZN7LogImplILN6LogTag4typeE49ELS1_58ELS1_0ELS1_0ELS1_0ELS1_0EE5writeILN8LogLevel4typeE3EEEvPKcz(ptr noundef @.str.5, i64 noundef %36, ptr noundef %38)
  br label %39

39:                                               ; preds = %34, %33
  %40 = load i8, ptr @EpsilonElasticTLAB, align 1
  %41 = trunc i8 %40 to i1
  br i1 %41, label %42, label %48

42:                                               ; preds = %39
  %43 = call noundef zeroext i1 @_ZN7LogImplILN6LogTag4typeE49ELS1_58ELS1_0ELS1_0ELS1_0ELS1_0EE8is_levelEN8LogLevel4typeE(i32 noundef 3)
  br i1 %43, label %45, label %44

44:                                               ; preds = %42
  br label %47

45:                                               ; preds = %42
  %46 = load double, ptr @EpsilonTLABElasticity, align 8
  call void (ptr, ...) @_ZN7LogImplILN6LogTag4typeE49ELS1_58ELS1_0ELS1_0ELS1_0ELS1_0EE5writeILN8LogLevel4typeE3EEEvPKcz(ptr noundef @.str.6, double noundef %46)
  br label %47

47:                                               ; preds = %45, %44
  br label %48

48:                                               ; preds = %47, %39
  %49 = load i8, ptr @EpsilonElasticTLABDecay, align 1
  %50 = trunc i8 %49 to i1
  br i1 %50, label %51, label %57

51:                                               ; preds = %48
  %52 = call noundef zeroext i1 @_ZN7LogImplILN6LogTag4typeE49ELS1_58ELS1_0ELS1_0ELS1_0ELS1_0EE8is_levelEN8LogLevel4typeE(i32 noundef 3)
  br i1 %52, label %54, label %53

53:                                               ; preds = %51
  br label %56

54:                                               ; preds = %51
  %55 = load i64, ptr @EpsilonTLABDecayTime, align 8
  call void (ptr, ...) @_ZN7LogImplILN6LogTag4typeE49ELS1_58ELS1_0ELS1_0ELS1_0ELS1_0EE5writeILN8LogLevel4typeE3EEEvPKcz(ptr noundef @.str.7, i64 noundef %55)
  br label %56

56:                                               ; preds = %54, %53
  br label %57

57:                                               ; preds = %56, %48
  br label %63

58:                                               ; preds = %22
  %59 = call noundef zeroext i1 @_ZN7LogImplILN6LogTag4typeE49ELS1_58ELS1_0ELS1_0ELS1_0ELS1_0EE8is_levelEN8LogLevel4typeE(i32 noundef 3)
  br i1 %59, label %61, label %60

60:                                               ; preds = %58
  br label %62

61:                                               ; preds = %58
  call void (ptr, ...) @_ZN7LogImplILN6LogTag4typeE49ELS1_58ELS1_0ELS1_0ELS1_0ELS1_0EE5writeILN8LogLevel4typeE3EEEvPKcz(ptr noundef @.str.8)
  br label %62

62:                                               ; preds = %61, %60
  br label %63

63:                                               ; preds = %62, %57
  ret void
}