; Function Attrs: mustprogress nounwind uwtable
define hidden void @_ZN17EpsilonInitLogger17print_gc_specificEv(ptr nocapture nonnull readnone align 8 %0) unnamed_addr #0 align 2 {
  %2 = load i64, ptr @InitialHeapSize, align 8
  %3 = load i64, ptr @MaxHeapSize, align 8
  %.not = icmp eq i64 %2, %3
  br i1 %.not, label %7, label %4

4:                                                ; preds = %1
  %5 = load volatile ptr, ptr getelementptr inbounds (i8, ptr @_ZN16LogTagSetMappingILN6LogTag4typeE49ELS1_58ELS1_0ELS1_0ELS1_0ELS1_0EE7_tagsetE, i64 72), align 8
  %.not8 = icmp eq ptr %5, null
  br i1 %.not8, label %7, label %6

6:                                                ; preds = %4
  tail call void (ptr, ...) @_ZN7LogImplILN6LogTag4typeE49ELS1_58ELS1_0ELS1_0ELS1_0ELS1_0EE5writeILN8LogLevel4typeE4EEEvPKcz(ptr noundef nonnull @.str)
  br label %7

7:                                                ; preds = %6, %4, %1
  %8 = tail call noundef zeroext i1 @_ZN7JVMFlag10is_defaultE12JVMFlagsEnum(i32 noundef 1106) #4
  br i1 %8, label %9, label %15

9:                                                ; preds = %7
  %10 = load i8, ptr @AlwaysPreTouch, align 1
  %11 = trunc i8 %10 to i1
  br i1 %11, label %15, label %12

12:                                               ; preds = %9
  %13 = load volatile ptr, ptr getelementptr inbounds (i8, ptr @_ZN16LogTagSetMappingILN6LogTag4typeE49ELS1_58ELS1_0ELS1_0ELS1_0ELS1_0EE7_tagsetE, i64 72), align 8
  %.not9 = icmp eq ptr %13, null
  br i1 %.not9, label %15, label %14

14:                                               ; preds = %12
  tail call void (ptr, ...) @_ZN7LogImplILN6LogTag4typeE49ELS1_58ELS1_0ELS1_0ELS1_0ELS1_0EE5writeILN8LogLevel4typeE4EEEvPKcz(ptr noundef nonnull @.str.4)
  br label %15

15:                                               ; preds = %14, %12, %9, %7
  %16 = load i8, ptr @UseTLAB, align 1
  %17 = trunc i8 %16 to i1
  br i1 %17, label %18, label %58

18:                                               ; preds = %15
  %19 = tail call noundef ptr @_ZN11EpsilonHeap4heapEv() #4
  %20 = load ptr, ptr %19, align 8
  %21 = getelementptr inbounds i8, ptr %20, i64 176
  %22 = load ptr, ptr %21, align 8
  %23 = tail call noundef i64 %22(ptr noundef nonnull align 8 dereferenceable(480) %19) #4
  %24 = load volatile ptr, ptr getelementptr inbounds (i8, ptr @_ZN16LogTagSetMappingILN6LogTag4typeE49ELS1_58ELS1_0ELS1_0ELS1_0ELS1_0EE7_tagsetE, i64 64), align 8
  %.not11 = icmp eq ptr %24, null
  br i1 %.not11, label %44, label %25

25:                                               ; preds = %18
  %26 = shl i64 %23, 3
  %27 = icmp ugt i64 %26, 1073741823
  %28 = and i64 %23, 134217727
  %29 = icmp eq i64 %28, 0
  %or.cond.i = and i1 %27, %29
  br i1 %or.cond.i, label %_Z23byte_size_in_exact_unitm.exit, label %30

30:                                               ; preds = %25
  %31 = icmp ugt i64 %26, 1048575
  %32 = and i64 %23, 131071
  %33 = icmp eq i64 %32, 0
  %or.cond14.i = and i1 %31, %33
  br i1 %or.cond14.i, label %.thread, label %36

.thread:                                          ; preds = %30
  %34 = lshr exact i64 %26, 20
  br label %_Z24exact_unit_for_byte_sizem.exit

_Z23byte_size_in_exact_unitm.exit:                ; preds = %25
  %35 = lshr exact i64 %26, 30
  br label %_Z24exact_unit_for_byte_sizem.exit

36:                                               ; preds = %30
  %37 = icmp ugt i64 %26, 1023
  %38 = and i64 %23, 127
  %39 = icmp eq i64 %38, 0
  %or.cond16.i = and i1 %37, %39
  %40 = lshr exact i64 %26, 10
  %spec.select.i = select i1 %or.cond16.i, i64 %40, i64 %26
  %41 = icmp ugt i64 %26, 1023
  %42 = and i64 %23, 127
  %43 = icmp eq i64 %42, 0
  %or.cond11.i = and i1 %41, %43
  %spec.select.i3 = select i1 %or.cond11.i, ptr @.str.12, ptr @.str.13
  br label %_Z24exact_unit_for_byte_sizem.exit

_Z24exact_unit_for_byte_sizem.exit:               ; preds = %.thread, %_Z23byte_size_in_exact_unitm.exit, %36
  %.0.i7 = phi i64 [ %35, %_Z23byte_size_in_exact_unitm.exit ], [ %spec.select.i, %36 ], [ %34, %.thread ]
  %.0.i4 = phi ptr [ @.str.10, %_Z23byte_size_in_exact_unitm.exit ], [ %spec.select.i3, %36 ], [ @.str.11, %.thread ]
  tail call void (ptr, ...) @_ZN7LogImplILN6LogTag4typeE49ELS1_58ELS1_0ELS1_0ELS1_0ELS1_0EE5writeILN8LogLevel4typeE3EEEvPKcz(ptr noundef nonnull @.str.5, i64 noundef %.0.i7, ptr noundef nonnull %.0.i4)
  br label %44

44:                                               ; preds = %18, %_Z24exact_unit_for_byte_sizem.exit
  %45 = load i8, ptr @EpsilonElasticTLAB, align 1
  %46 = trunc i8 %45 to i1
  br i1 %46, label %47, label %51

47:                                               ; preds = %44
  %48 = load volatile ptr, ptr getelementptr inbounds (i8, ptr @_ZN16LogTagSetMappingILN6LogTag4typeE49ELS1_58ELS1_0ELS1_0ELS1_0ELS1_0EE7_tagsetE, i64 64), align 8
  %.not12 = icmp eq ptr %48, null
  br i1 %.not12, label %51, label %49

49:                                               ; preds = %47
  %50 = load double, ptr @EpsilonTLABElasticity, align 8
  tail call void (ptr, ...) @_ZN7LogImplILN6LogTag4typeE49ELS1_58ELS1_0ELS1_0ELS1_0ELS1_0EE5writeILN8LogLevel4typeE3EEEvPKcz(ptr noundef nonnull @.str.6, double noundef %50)
  br label %51

51:                                               ; preds = %49, %47, %44
  %52 = load i8, ptr @EpsilonElasticTLABDecay, align 1
  %53 = trunc i8 %52 to i1
  br i1 %53, label %54, label %61

54:                                               ; preds = %51
  %55 = load volatile ptr, ptr getelementptr inbounds (i8, ptr @_ZN16LogTagSetMappingILN6LogTag4typeE49ELS1_58ELS1_0ELS1_0ELS1_0ELS1_0EE7_tagsetE, i64 64), align 8
  %.not13 = icmp eq ptr %55, null
  br i1 %.not13, label %61, label %56

56:                                               ; preds = %54
  %57 = load i64, ptr @EpsilonTLABDecayTime, align 8
  tail call void (ptr, ...) @_ZN7LogImplILN6LogTag4typeE49ELS1_58ELS1_0ELS1_0ELS1_0ELS1_0EE5writeILN8LogLevel4typeE3EEEvPKcz(ptr noundef nonnull @.str.7, i64 noundef %57)
  br label %61

58:                                               ; preds = %15
  %59 = load volatile ptr, ptr getelementptr inbounds (i8, ptr @_ZN16LogTagSetMappingILN6LogTag4typeE49ELS1_58ELS1_0ELS1_0ELS1_0ELS1_0EE7_tagsetE, i64 64), align 8
  %.not10 = icmp eq ptr %59, null
  br i1 %.not10, label %61, label %60

60:                                               ; preds = %58
  tail call void (ptr, ...) @_ZN7LogImplILN6LogTag4typeE49ELS1_58ELS1_0ELS1_0ELS1_0ELS1_0EE5writeILN8LogLevel4typeE3EEEvPKcz(ptr noundef nonnull @.str.8)
  br label %61

61:                                               ; preds = %60, %58, %51, %54, %56
  ret void
}